; Function Attrs: nounwind uwtable
define internal noundef i32 @outline_line_to_cb(ptr noundef readonly captures(address_is_null) %0, ptr noundef %1) #0 {
  %3 = alloca %struct._lv_event_t, align 8
  %4 = alloca %struct._lv_freetype_outline_event_param_t, align 8
  %5 = tail call ptr @lv_freetype_get_context() #9
  call void @llvm.lifetime.start.p0(i64 48, ptr nonnull %4) #9
  call void @lv_memset(ptr noundef nonnull %4, i8 noundef zeroext 0, i64 noundef 48) #9
  store ptr %1, ptr %4, align 8, !tbaa !67
  %6 = getelementptr inbounds nuw i8, ptr %4, i64 8
  store i32 2, ptr %6, align 8, !tbaa !82
  %7 = getelementptr inbounds nuw i8, ptr %4, i64 20
  %8 = getelementptr inbounds nuw i8, ptr %4, i64 12
  %.not.i8.i = icmp eq ptr %0, null
  call void @llvm.memset.p0.i64(ptr noundef nonnull align 4 dereferenceable(16) %7, i8 0, i64 16, i1 false)
  br i1 %.not.i8.i, label %ft_vector_to_lv_vector.exit10.i, label %9

9:                                                ; preds = %2
  %10 = load i64, ptr %0, align 8, !tbaa !83
  %11 = trunc i64 %10 to i32
  %12 = getelementptr inbounds nuw i8, ptr %0, i64 8
  %13 = load i64, ptr %12, align 8, !tbaa !84
  %14 = trunc i64 %13 to i32
  br label %ft_vector_to_lv_vector.exit10.i

ft_vector_to_lv_vector.exit10.i:                  ; preds = %9, %2
  %.sink.i9.i = phi i32 [ %11, %9 ], [ 0, %2 ]
  %15 = phi i32 [ %14, %9 ], [ 0, %2 ]
  store i32 %.sink.i9.i, ptr %8, align 4, !tbaa !85
  %16 = getelementptr inbounds nuw i8, ptr %4, i64 16
  store i32 %15, ptr %16, align 8, !tbaa !86
  %17 = getelementptr inbounds nuw i8, ptr %5, i64 32
  %18 = load ptr, ptr %17, align 8, !tbaa !59
  %.not.i11.i = icmp eq ptr %18, null
  br i1 %.not.i11.i, label %outline_push_point.exit, label %19

19:                                               ; preds = %ft_vector_to_lv_vector.exit10.i
  call void @llvm.lifetime.start.p0(i64 56, ptr nonnull %3) #9
  call void @lv_memset(ptr noundef nonnull %3, i8 noundef zeroext 0, i64 noundef 56) #9
  %20 = getelementptr inbounds nuw i8, ptr %3, i64 16
  store i32 36, ptr %20, align 8, !tbaa !62
  %21 = getelementptr inbounds nuw i8, ptr %3, i64 32
  store ptr %4, ptr %21, align 8, !tbaa !65
  %22 = getelementptr inbounds nuw i8, ptr %3, i64 24
  store ptr null, ptr %22, align 8, !tbaa !66
  %23 = load ptr, ptr %17, align 8, !tbaa !59
  call void %23(ptr noundef nonnull %3) #9
  call void @llvm.lifetime.end.p0(i64 56, ptr nonnull %3) #9
  br label %outline_push_point.exit

outline_push_point.exit:                          ; preds = %ft_vector_to_lv_vector.exit10.i, %19
  call void @llvm.lifetime.end.p0(i64 48, ptr nonnull %4) #9
  ret i32 0
}